; Function Attrs: null_pointer_is_valid sspstrong uwtable
define internal noundef i32 @dissect_auth_attr_msg(ptr noundef %0, i32 noundef %1, ptr readnone captures(none) %2, ptr noundef %3, i32 %4) #0 {
  %6 = tail call i32 @tvb_get_ntohl(ptr noundef %0, i32 noundef %1)
  %7 = load i32, ptr @hf_ndmp_auth_type, align 4
  %8 = tail call ptr @proto_tree_add_item(ptr noundef %3, i32 noundef %7, ptr noundef %0, i32 noundef %1, i32 noundef 4, i32 noundef 0)
  %9 = add i32 %1, 4
  %cond = icmp eq i32 %6, 2
  br i1 %cond, label %10, label %14

10:                                               ; preds = %5
  %11 = load i32, ptr @hf_ndmp_auth_challenge, align 4
  %12 = tail call ptr @proto_tree_add_item(ptr noundef %3, i32 noundef %11, ptr noundef %0, i32 noundef %9, i32 noundef 64, i32 noundef 0)
  %13 = add i32 %1, 68
  br label %14

14:                                               ; preds = %5, %10
  %.0 = phi i32 [ %13, %10 ], [ %9, %5 ]
  ret i32 %.0
}